target datalayout = "e-m:e-p270:32:32-p271:32:32-p272:64:64-i64:64-i128:128-f80:128-n8:16:32:64-S128"
target triple = "x86_64-pc-linux-gnu"

%struct.commview_ncf_header = type { i16, i16, i8, i16, i8, i8, i8, i8, i8, i32, i8, i8, i8, i8, i8, i8, i8, i8 }
%struct.wtap = type { ptr, ptr, i8, i32, i32, ptr, ptr, ptr, i32, ptr, ptr, ptr, ptr, ptr, ptr, ptr, ptr, ptr, ptr, i32, i32, ptr, ptr, ptr, ptr }

@commview_ncf_file_type_subtype = internal global i32 -1, align 4

; Function Attrs: null_pointer_is_valid sspstrong uwtable
define hidden i32 @commview_ncf_open(ptr noundef %0, ptr noundef %1, ptr noundef %2) #0 {
  %4 = alloca i32, align 4
  %5 = alloca ptr, align 8
  %6 = alloca ptr, align 8
  %7 = alloca ptr, align 8
  %8 = alloca %struct.commview_ncf_header, align 4
  %9 = alloca i32, align 4
  store ptr %0, ptr %5, align 8
  store ptr %1, ptr %6, align 8
  store ptr %2, ptr %7, align 8
  call void @llvm.lifetime.start.p0(i64 28, ptr %8) #8
  %10 = load ptr, ptr %5, align 8
  %11 = getelementptr inbounds nuw %struct.wtap, ptr %10, i32 0, i32 0
  %12 = load ptr, ptr %11, align 8
  %13 = load ptr, ptr %6, align 8
  %14 = load ptr, ptr %7, align 8
  %15 = call zeroext i1 @commview_ncf_read_header(ptr noundef %8, ptr noundef %12, ptr noundef %13, ptr noundef %14)
  br i1 %15, label %26, label %16

16:                                               ; preds = %3
  %17 = load ptr, ptr %6, align 8
  %18 = load i32, ptr %17, align 4
  %19 = icmp ne i32 %18, 0
  br i1 %19, label %20, label %25

20:                                               ; preds = %16
  %21 = load ptr, ptr %6, align 8
  %22 = load i32, ptr %21, align 4
  %23 = icmp ne i32 %22, -12
  br i1 %23, label %24, label %25

24:                                               ; preds = %20
  store i32 -1, ptr %4, align 4
  store i32 1, ptr %9, align 4
  br label %126

25:                                               ; preds = %20, %16
  store i32 0, ptr %4, align 4
  store i32 1, ptr %9, align 4
  br label %126

26:                                               ; preds = %3
  %27 = getelementptr inbounds nuw %struct.commview_ncf_header, ptr %8, i32 0, i32 2
  %28 = load i8, ptr %27, align 4
  %29 = zext i8 %28 to i32
  %30 = icmp ne i32 %29, 0
  br i1 %30, label %105, label %31

31:                                               ; preds = %26
  %32 = getelementptr inbounds nuw %struct.commview_ncf_header, ptr %8, i32 0, i32 3
  %33 = load i16, ptr %32, align 2
  %34 = zext i16 %33 to i32
  %35 = icmp slt i32 %34, 1970
  br i1 %35, label %105, label %36

36:                                               ; preds = %31
  %37 = getelementptr inbounds nuw %struct.commview_ncf_header, ptr %8, i32 0, i32 3
  %38 = load i16, ptr %37, align 2
  %39 = zext i16 %38 to i32
  %40 = icmp sge i32 %39, 2038
  br i1 %40, label %105, label %41

41:                                               ; preds = %36
  %42 = getelementptr inbounds nuw %struct.commview_ncf_header, ptr %8, i32 0, i32 4
  %43 = load i8, ptr %42, align 4
  %44 = zext i8 %43 to i32
  %45 = icmp slt i32 %44, 1
  br i1 %45, label %105, label %46

46:                                               ; preds = %41
  %47 = getelementptr inbounds nuw %struct.commview_ncf_header, ptr %8, i32 0, i32 4
  %48 = load i8, ptr %47, align 4
  %49 = zext i8 %48 to i32
  %50 = icmp sgt i32 %49, 12
  br i1 %50, label %105, label %51

51:                                               ; preds = %46
  %52 = getelementptr inbounds nuw %struct.commview_ncf_header, ptr %8, i32 0, i32 5
  %53 = load i8, ptr %52, align 1
  %54 = zext i8 %53 to i32
  %55 = icmp slt i32 %54, 1
  br i1 %55, label %105, label %56

56:                                               ; preds = %51
  %57 = getelementptr inbounds nuw %struct.commview_ncf_header, ptr %8, i32 0, i32 5
  %58 = load i8, ptr %57, align 1
  %59 = zext i8 %58 to i32
  %60 = icmp sgt i32 %59, 31
  br i1 %60, label %105, label %61

61:                                               ; preds = %56
  %62 = getelementptr inbounds nuw %struct.commview_ncf_header, ptr %8, i32 0, i32 6
  %63 = load i8, ptr %62, align 2
  %64 = zext i8 %63 to i32
  %65 = icmp sgt i32 %64, 23
  br i1 %65, label %105, label %66

66:                                               ; preds = %61
  %67 = getelementptr inbounds nuw %struct.commview_ncf_header, ptr %8, i32 0, i32 7
  %68 = load i8, ptr %67, align 1
  %69 = zext i8 %68 to i32
  %70 = icmp sgt i32 %69, 59
  br i1 %70, label %105, label %71

71:                                               ; preds = %66
  %72 = getelementptr inbounds nuw %struct.commview_ncf_header, ptr %8, i32 0, i32 8
  %73 = load i8, ptr %72, align 4
  %74 = zext i8 %73 to i32
  %75 = icmp sgt i32 %74, 60
  br i1 %75, label %105, label %76

76:                                               ; preds = %71
  %77 = getelementptr inbounds nuw %struct.commview_ncf_header, ptr %8, i32 0, i32 11
  %78 = load i8, ptr %77, align 1
  %79 = zext i8 %78 to i32
  %80 = icmp sgt i32 %79, 100
  br i1 %80, label %105, label %81

81:                                               ; preds = %76
  %82 = getelementptr inbounds nuw %struct.commview_ncf_header, ptr %8, i32 0, i32 10
  %83 = load i8, ptr %82, align 4
  %84 = zext i8 %83 to i32
  %85 = and i32 %84, 128
  %86 = icmp ne i32 %85, 0
  br i1 %86, label %105, label %87

87:                                               ; preds = %81
  %88 = getelementptr inbounds nuw %struct.commview_ncf_header, ptr %8, i32 0, i32 10
  %89 = load i8, ptr %88, align 4
  %90 = zext i8 %89 to i32
  %91 = and i32 %90, 15
  %92 = icmp ne i32 %91, 0
  br i1 %92, label %93, label %106

93:                                               ; preds = %87
  %94 = getelementptr inbounds nuw %struct.commview_ncf_header, ptr %8, i32 0, i32 10
  %95 = load i8, ptr %94, align 4
  %96 = zext i8 %95 to i32
  %97 = and i32 %96, 15
  %98 = icmp ne i32 %97, 1
  br i1 %98, label %99, label %106

99:                                               ; preds = %93
  %100 = getelementptr inbounds nuw %struct.commview_ncf_header, ptr %8, i32 0, i32 10
  %101 = load i8, ptr %100, align 4
  %102 = zext i8 %101 to i32
  %103 = and i32 %102, 15
  %104 = icmp ne i32 %103, 2
  br i1 %104, label %105, label %106

105:                                              ; preds = %99, %81, %76, %71, %66, %61, %56, %51, %46, %41, %36, %31, %26
  store i32 0, ptr %4, align 4
  store i32 1, ptr %9, align 4
  br label %126

106:                                              ; preds = %99, %93, %87
  %107 = load ptr, ptr %5, align 8
  %108 = getelementptr inbounds nuw %struct.wtap, ptr %107, i32 0, i32 0
  %109 = load ptr, ptr %108, align 8
  %110 = load ptr, ptr %6, align 8
  %111 = call i64 @file_seek(ptr noundef %109, i64 noundef 0, i32 noundef 0, ptr noundef %110)
  %112 = icmp eq i64 %111, -1
  br i1 %112, label %113, label %114

113:                                              ; preds = %106
  store i32 -1, ptr %4, align 4
  store i32 1, ptr %9, align 4
  br label %126

114:                                              ; preds = %106
  %115 = load ptr, ptr %5, align 8
  %116 = getelementptr inbounds nuw %struct.wtap, ptr %115, i32 0, i32 15
  store ptr @commview_ncf_read, ptr %116, align 8
  %117 = load ptr, ptr %5, align 8
  %118 = getelementptr inbounds nuw %struct.wtap, ptr %117, i32 0, i32 16
  store ptr @commview_ncf_seek_read, ptr %118, align 8
  %119 = load i32, ptr @commview_ncf_file_type_subtype, align 4
  %120 = load ptr, ptr %5, align 8
  %121 = getelementptr inbounds nuw %struct.wtap, ptr %120, i32 0, i32 3
  store i32 %119, ptr %121, align 4
  %122 = load ptr, ptr %5, align 8
  %123 = getelementptr inbounds nuw %struct.wtap, ptr %122, i32 0, i32 19
  store i32 -1, ptr %123, align 8
  %124 = load ptr, ptr %5, align 8
  %125 = getelementptr inbounds nuw %struct.wtap, ptr %124, i32 0, i32 20
  store i32 6, ptr %125, align 4
  store i32 1, ptr %4, align 4
  store i32 1, ptr %9, align 4
  br label %126

126:                                              ; preds = %114, %113, %105, %25, %24
  call void @llvm.lifetime.end.p0(i64 28, ptr %8) #8
  %127 = load i32, ptr %4, align 4
  ret i32 %127
}