; Function Attrs: null_pointer_is_valid sspstrong uwtable
define hidden range(i32 -1, 2) i32 @commview_ncf_open(ptr noundef captures(none) %0, ptr noundef %1, ptr noundef %2) local_unnamed_addr #0 {
  %4 = alloca %struct.commview_ncf_header, align 4
  call void @llvm.lifetime.start.p0(i64 28, ptr nonnull %4) #8
  %5 = load ptr, ptr %0, align 8
  %6 = call fastcc zeroext i1 @commview_ncf_read_header(ptr noundef nonnull %4, ptr noundef %5, ptr noundef %1, ptr noundef %2)
  br i1 %6, label %10, label %7

7:                                                ; preds = %3
  %8 = load i32, ptr %1, align 4
  %switch.selectcmp.case1 = icmp ne i32 %8, 0
  %switch.selectcmp.case2 = icmp ne i32 %8, -12
  %switch.selectcmp.not = and i1 %switch.selectcmp.case1, %switch.selectcmp.case2
  %9 = sext i1 %switch.selectcmp.not to i32
  br label %53

10:                                               ; preds = %3
  %11 = getelementptr inbounds nuw i8, ptr %4, i64 4
  %12 = load i8, ptr %11, align 4
  %13 = icmp ne i8 %12, 0
  %14 = getelementptr inbounds nuw i8, ptr %4, i64 6
  %15 = load i16, ptr %14, align 2
  %16 = add i16 %15, -2038
  %17 = icmp ult i16 %16, -68
  %or.cond7 = select i1 %13, i1 true, i1 %17
  %18 = getelementptr inbounds nuw i8, ptr %4, i64 8
  %19 = load i8, ptr %18, align 4
  %20 = add i8 %19, -13
  %21 = icmp ult i8 %20, -12
  %or.cond15 = select i1 %or.cond7, i1 true, i1 %21
  %22 = getelementptr inbounds nuw i8, ptr %4, i64 9
  %23 = load i8, ptr %22, align 1
  %24 = add i8 %23, -32
  %25 = icmp ult i8 %24, -31
  %or.cond23 = select i1 %or.cond15, i1 true, i1 %25
  %26 = getelementptr inbounds nuw i8, ptr %4, i64 10
  %27 = load i8, ptr %26, align 2
  %28 = icmp ugt i8 %27, 23
  %or.cond27 = select i1 %or.cond23, i1 true, i1 %28
  %29 = getelementptr inbounds nuw i8, ptr %4, i64 11
  %30 = load i8, ptr %29, align 1
  %31 = icmp ugt i8 %30, 59
  %or.cond31 = select i1 %or.cond27, i1 true, i1 %31
  %32 = getelementptr inbounds nuw i8, ptr %4, i64 12
  %33 = load i8, ptr %32, align 4
  %34 = icmp ugt i8 %33, 60
  %or.cond35 = select i1 %or.cond31, i1 true, i1 %34
  %35 = getelementptr inbounds nuw i8, ptr %4, i64 21
  %36 = load i8, ptr %35, align 1
  %37 = icmp ugt i8 %36, 100
  %or.cond39 = select i1 %or.cond35, i1 true, i1 %37
  br i1 %or.cond39, label %53, label %38

38:                                               ; preds = %10
  %39 = getelementptr inbounds nuw i8, ptr %4, i64 20
  %40 = load i8, ptr %39, align 4
  %.not54 = icmp sgt i8 %40, -1
  %41 = and i8 %40, 15
  %switch = icmp samesign ult i8 %41, 3
  %or.cond = and i1 %.not54, %switch
  br i1 %or.cond, label %42, label %53

42:                                               ; preds = %38
  %43 = load ptr, ptr %0, align 8
  %44 = call i64 @file_seek(ptr noundef %43, i64 noundef 0, i32 noundef 0, ptr noundef %1)
  %45 = icmp eq i64 %44, -1
  br i1 %45, label %53, label %46

46:                                               ; preds = %42
  %47 = getelementptr inbounds nuw i8, ptr %0, i64 112
  store ptr @commview_ncf_read, ptr %47, align 8
  %48 = getelementptr inbounds nuw i8, ptr %0, i64 120
  store ptr @commview_ncf_seek_read, ptr %48, align 8
  %49 = load i32, ptr @commview_ncf_file_type_subtype, align 4
  %50 = getelementptr inbounds nuw i8, ptr %0, i64 20
  store i32 %49, ptr %50, align 4
  %51 = getelementptr inbounds nuw i8, ptr %0, i64 144
  store i32 -1, ptr %51, align 8
  %52 = getelementptr inbounds nuw i8, ptr %0, i64 148
  store i32 6, ptr %52, align 4
  br label %53

53:                                               ; preds = %7, %42, %10, %38, %46
  %.0 = phi i32 [ 1, %46 ], [ 0, %38 ], [ 0, %10 ], [ -1, %42 ], [ %9, %7 ]
  call void @llvm.lifetime.end.p0(i64 28, ptr nonnull %4) #8
  ret i32 %.0
}